; Function Attrs: nounwind uwtable
define dso_local range(i32 0, 28) i32 @Curl_ssl_conn_config_init(ptr noundef readonly captures(none) %0, ptr noundef captures(none) initializes((544, 545), (548, 553)) %1) local_unnamed_addr #2 {
  %3 = getelementptr inbounds nuw i8, ptr %0, i64 1272
  %4 = getelementptr inbounds nuw i8, ptr %1, i64 448
  %5 = tail call fastcc zeroext i1 @clone_ssl_primary_config(ptr noundef nonnull %3, ptr noundef nonnull %4)
  br i1 %5, label %6, label %10

6:                                                ; preds = %2
  %7 = getelementptr inbounds nuw i8, ptr %0, i64 1456
  %8 = getelementptr inbounds nuw i8, ptr %1, i64 560
  %9 = tail call fastcc zeroext i1 @clone_ssl_primary_config(ptr noundef nonnull %7, ptr noundef nonnull %8)
  %. = select i1 %9, i32 0, i32 27
  br label %10

10:                                               ; preds = %6, %2
  %.0 = phi i32 [ 27, %2 ], [ %., %6 ]
  ret i32 %.0
}